target datalayout = "e-m:e-p270:32:32-p271:32:32-p272:64:64-i64:64-i128:128-f80:128-n8:16:32:64-S128"
target triple = "x86_64-pc-linux-gnu"

%struct.test_fixture = type { ptr, ptr, ptr, ptr, ptr, ptr, i32, ptr, ptr, ptr, i32, i32, i32 }

@endentity1 = internal global ptr null, align 8
@endentity2 = internal global ptr null, align 8
@root = internal global ptr null, align 8
@intermediate = internal global ptr null, align 8
@.str.14 = private unnamed_addr constant [35 x i8] c"../openssl/test/cmp_protect_test.c\00", align 1
@.str.55 = private unnamed_addr constant [26 x i8] c"test_cmp_build_cert_chain\00", align 1
@.str.88 = private unnamed_addr constant [36 x i8] c"fixture->certs = sk_X509_new_null()\00", align 1
@.str.89 = private unnamed_addr constant [36 x i8] c"fixture->chain = sk_X509_new_null()\00", align 1
@.str.90 = private unnamed_addr constant [41 x i8] c"sk_X509_push(fixture->certs, endentity1)\00", align 1
@.str.91 = private unnamed_addr constant [35 x i8] c"sk_X509_push(fixture->certs, root)\00", align 1
@.str.92 = private unnamed_addr constant [43 x i8] c"sk_X509_push(fixture->certs, intermediate)\00", align 1
@.str.93 = private unnamed_addr constant [41 x i8] c"sk_X509_push(fixture->chain, endentity2)\00", align 1
@.str.94 = private unnamed_addr constant [43 x i8] c"sk_X509_push(fixture->chain, intermediate)\00", align 1
@.str.95 = private unnamed_addr constant [35 x i8] c"sk_X509_push(fixture->chain, root)\00", align 1

; Function Attrs: inlinehint nounwind uwtable
define internal ptr @ossl_check_X509_type(ptr noundef %0) #3 {
  %2 = alloca ptr, align 8
  store ptr %0, ptr %2, align 8, !tbaa !11
  %3 = load ptr, ptr %2, align 8, !tbaa !11
  ret ptr %3
}

; Function Attrs: inlinehint nounwind uwtable
define internal ptr @ossl_check_X509_sk_type(ptr noundef %0) #3 {
  %2 = alloca ptr, align 8
  store ptr %0, ptr %2, align 8, !tbaa !54
  %3 = load ptr, ptr %2, align 8, !tbaa !54
  ret ptr %3
}

; Function Attrs: nounwind uwtable
define internal i32 @test_cmp_build_cert_chain() #0 {
  %1 = alloca i32, align 4
  %2 = alloca ptr, align 8
  %3 = alloca i32, align 4
  %4 = alloca i32, align 4
  call void @llvm.lifetime.start.p0(i64 8, ptr %2) #5
  %5 = call ptr @set_up(ptr noundef @.str.55)
  store ptr %5, ptr %2, align 8, !tbaa !19
  call void @llvm.lifetime.start.p0(i64 4, ptr %3) #5
  store i32 0, ptr %3, align 4, !tbaa !21
  %6 = load ptr, ptr %2, align 8, !tbaa !19
  %7 = icmp eq ptr %6, null
  br i1 %7, label %8, label %9

8:                                                ; preds = %0
  store i32 0, ptr %1, align 4
  store i32 1, ptr %4, align 4
  br label %119

9:                                                ; preds = %0
  %10 = load ptr, ptr %2, align 8, !tbaa !19
  %11 = getelementptr inbounds nuw %struct.test_fixture, ptr %10, i32 0, i32 12
  store i32 1, ptr %11, align 8, !tbaa !43
  %12 = load ptr, ptr %2, align 8, !tbaa !19
  %13 = getelementptr inbounds nuw %struct.test_fixture, ptr %12, i32 0, i32 10
  store i32 0, ptr %13, align 8, !tbaa !45
  %14 = load ptr, ptr @endentity2, align 8, !tbaa !11
  %15 = load ptr, ptr %2, align 8, !tbaa !19
  %16 = getelementptr inbounds nuw %struct.test_fixture, ptr %15, i32 0, i32 7
  store ptr %14, ptr %16, align 8, !tbaa !46
  %17 = call ptr @OPENSSL_sk_new_null()
  %18 = load ptr, ptr %2, align 8, !tbaa !19
  %19 = getelementptr inbounds nuw %struct.test_fixture, ptr %18, i32 0, i32 8
  store ptr %17, ptr %19, align 8, !tbaa !47
  %20 = call i32 @test_ptr(ptr noundef @.str.14, i32 noundef 378, ptr noundef @.str.88, ptr noundef %17)
  %21 = icmp ne i32 %20, 0
  br i1 %21, label %22, label %88

22:                                               ; preds = %9
  %23 = call ptr @OPENSSL_sk_new_null()
  %24 = load ptr, ptr %2, align 8, !tbaa !19
  %25 = getelementptr inbounds nuw %struct.test_fixture, ptr %24, i32 0, i32 9
  store ptr %23, ptr %25, align 8, !tbaa !48
  %26 = call i32 @test_ptr(ptr noundef @.str.14, i32 noundef 379, ptr noundef @.str.89, ptr noundef %23)
  %27 = icmp ne i32 %26, 0
  br i1 %27, label %28, label %88

28:                                               ; preds = %22
  %29 = load ptr, ptr %2, align 8, !tbaa !19
  %30 = getelementptr inbounds nuw %struct.test_fixture, ptr %29, i32 0, i32 8
  %31 = load ptr, ptr %30, align 8, !tbaa !47
  %32 = call ptr @ossl_check_X509_sk_type(ptr noundef %31)
  %33 = load ptr, ptr @endentity1, align 8, !tbaa !11
  %34 = call ptr @ossl_check_X509_type(ptr noundef %33)
  %35 = call i32 @OPENSSL_sk_push(ptr noundef %32, ptr noundef %34)
  %36 = icmp ne i32 %35, 0
  %37 = zext i1 %36 to i32
  %38 = call i32 @test_true(ptr noundef @.str.14, i32 noundef 380, ptr noundef @.str.90, i32 noundef %37)
  %39 = icmp ne i32 %38, 0
  br i1 %39, label %40, label %88

40:                                               ; preds = %28
  %41 = load ptr, ptr %2, align 8, !tbaa !19
  %42 = getelementptr inbounds nuw %struct.test_fixture, ptr %41, i32 0, i32 8
  %43 = load ptr, ptr %42, align 8, !tbaa !47
  %44 = call ptr @ossl_check_X509_sk_type(ptr noundef %43)
  %45 = load ptr, ptr @root, align 8, !tbaa !11
  %46 = call ptr @ossl_check_X509_type(ptr noundef %45)
  %47 = call i32 @OPENSSL_sk_push(ptr noundef %44, ptr noundef %46)
  %48 = icmp ne i32 %47, 0
  %49 = zext i1 %48 to i32
  %50 = call i32 @test_true(ptr noundef @.str.14, i32 noundef 381, ptr noundef @.str.91, i32 noundef %49)
  %51 = icmp ne i32 %50, 0
  br i1 %51, label %52, label %88

52:                                               ; preds = %40
  %53 = load ptr, ptr %2, align 8, !tbaa !19
  %54 = getelementptr inbounds nuw %struct.test_fixture, ptr %53, i32 0, i32 8
  %55 = load ptr, ptr %54, align 8, !tbaa !47
  %56 = call ptr @ossl_check_X509_sk_type(ptr noundef %55)
  %57 = load ptr, ptr @intermediate, align 8, !tbaa !11
  %58 = call ptr @ossl_check_X509_type(ptr noundef %57)
  %59 = call i32 @OPENSSL_sk_push(ptr noundef %56, ptr noundef %58)
  %60 = icmp ne i32 %59, 0
  %61 = zext i1 %60 to i32
  %62 = call i32 @test_true(ptr noundef @.str.14, i32 noundef 382, ptr noundef @.str.92, i32 noundef %61)
  %63 = icmp ne i32 %62, 0
  br i1 %63, label %64, label %88

64:                                               ; preds = %52
  %65 = load ptr, ptr %2, align 8, !tbaa !19
  %66 = getelementptr inbounds nuw %struct.test_fixture, ptr %65, i32 0, i32 9
  %67 = load ptr, ptr %66, align 8, !tbaa !48
  %68 = call ptr @ossl_check_X509_sk_type(ptr noundef %67)
  %69 = load ptr, ptr @endentity2, align 8, !tbaa !11
  %70 = call ptr @ossl_check_X509_type(ptr noundef %69)
  %71 = call i32 @OPENSSL_sk_push(ptr noundef %68, ptr noundef %70)
  %72 = icmp ne i32 %71, 0
  %73 = zext i1 %72 to i32
  %74 = call i32 @test_true(ptr noundef @.str.14, i32 noundef 383, ptr noundef @.str.93, i32 noundef %73)
  %75 = icmp ne i32 %74, 0
  br i1 %75, label %76, label %88

76:                                               ; preds = %64
  %77 = load ptr, ptr %2, align 8, !tbaa !19
  %78 = getelementptr inbounds nuw %struct.test_fixture, ptr %77, i32 0, i32 9
  %79 = load ptr, ptr %78, align 8, !tbaa !48
  %80 = call ptr @ossl_check_X509_sk_type(ptr noundef %79)
  %81 = load ptr, ptr @intermediate, align 8, !tbaa !11
  %82 = call ptr @ossl_check_X509_type(ptr noundef %81)
  %83 = call i32 @OPENSSL_sk_push(ptr noundef %80, ptr noundef %82)
  %84 = icmp ne i32 %83, 0
  %85 = zext i1 %84 to i32
  %86 = call i32 @test_true(ptr noundef @.str.14, i32 noundef 384, ptr noundef @.str.94, i32 noundef %85)
  %87 = icmp ne i32 %86, 0
  br i1 %87, label %90, label %88

88:                                               ; preds = %76, %64, %52, %40, %28, %22, %9
  %89 = load ptr, ptr %2, align 8, !tbaa !19
  call void @tear_down(ptr noundef %89)
  store ptr null, ptr %2, align 8, !tbaa !19
  br label %90

90:                                               ; preds = %88, %76
  %91 = load ptr, ptr %2, align 8, !tbaa !19
  %92 = icmp ne ptr %91, null
  br i1 %92, label %93, label %116

93:                                               ; preds = %90
  %94 = load ptr, ptr %2, align 8, !tbaa !19
  %95 = call i32 @execute_cmp_build_cert_chain_test(ptr noundef %94)
  store i32 %95, ptr %3, align 4, !tbaa !21
  %96 = load ptr, ptr %2, align 8, !tbaa !19
  %97 = getelementptr inbounds nuw %struct.test_fixture, ptr %96, i32 0, i32 10
  store i32 1, ptr %97, align 8, !tbaa !45
  %98 = load i32, ptr %3, align 4, !tbaa !21
  %99 = icmp ne i32 %98, 0
  br i1 %99, label %100, label %115

100:                                              ; preds = %93
  %101 = load ptr, ptr %2, align 8, !tbaa !19
  %102 = getelementptr inbounds nuw %struct.test_fixture, ptr %101, i32 0, i32 9
  %103 = load ptr, ptr %102, align 8, !tbaa !48
  %104 = call ptr @ossl_check_X509_sk_type(ptr noundef %103)
  %105 = load ptr, ptr @root, align 8, !tbaa !11
  %106 = call ptr @ossl_check_X509_type(ptr noundef %105)
  %107 = call i32 @OPENSSL_sk_push(ptr noundef %104, ptr noundef %106)
  %108 = icmp ne i32 %107, 0
  %109 = zext i1 %108 to i32
  %110 = call i32 @test_true(ptr noundef @.str.14, i32 noundef 391, ptr noundef @.str.95, i32 noundef %109)
  %111 = icmp ne i32 %110, 0
  br i1 %111, label %112, label %115

112:                                              ; preds = %100
  %113 = load ptr, ptr %2, align 8, !tbaa !19
  %114 = call i32 @execute_cmp_build_cert_chain_test(ptr noundef %113)
  store i32 %114, ptr %3, align 4, !tbaa !21
  br label %115

115:                                              ; preds = %112, %100, %93
  br label %116

116:                                              ; preds = %115, %90
  %117 = load ptr, ptr %2, align 8, !tbaa !19
  call void @tear_down(ptr noundef %117)
  %118 = load i32, ptr %3, align 4, !tbaa !21
  store i32 %118, ptr %1, align 4
  store i32 1, ptr %4, align 4
  br label %119

119:                                              ; preds = %116, %8
  call void @llvm.lifetime.end.p0(i64 4, ptr %3) #5
  call void @llvm.lifetime.end.p0(i64 8, ptr %2) #5
  %120 = load i32, ptr %1, align 4
  ret i32 %120
}