; Function Attrs: nounwind uwtable
define internal i32 @test_cmp_build_cert_chain() #0 {
  %1 = tail call fastcc ptr @set_up(ptr noundef nonnull @.str.55)
  %2 = icmp eq ptr %1, null
  br i1 %2, label %73, label %3

3:                                                ; preds = %0
  %4 = getelementptr inbounds nuw i8, ptr %1, i64 88
  store i32 1, ptr %4, align 8, !tbaa !43
  %5 = getelementptr inbounds nuw i8, ptr %1, i64 80
  store i32 0, ptr %5, align 8, !tbaa !44
  %6 = load ptr, ptr @endentity2, align 8, !tbaa !11
  %7 = getelementptr inbounds nuw i8, ptr %1, i64 56
  store ptr %6, ptr %7, align 8, !tbaa !45
  %8 = tail call ptr @OPENSSL_sk_new_null() #5
  %9 = getelementptr inbounds nuw i8, ptr %1, i64 64
  store ptr %8, ptr %9, align 8, !tbaa !39
  %10 = tail call i32 @test_ptr(ptr noundef nonnull @.str.14, i32 noundef 378, ptr noundef nonnull @.str.88, ptr noundef %8) #5
  %.not = icmp eq i32 %10, 0
  br i1 %.not, label %.thread, label %11

11:                                               ; preds = %3
  %12 = tail call ptr @OPENSSL_sk_new_null() #5
  %13 = getelementptr inbounds nuw i8, ptr %1, i64 72
  store ptr %12, ptr %13, align 8, !tbaa !40
  %14 = tail call i32 @test_ptr(ptr noundef nonnull @.str.14, i32 noundef 379, ptr noundef nonnull @.str.89, ptr noundef %12) #5
  %.not24 = icmp eq i32 %14, 0
  br i1 %.not24, label %.thread, label %15

15:                                               ; preds = %11
  %16 = load ptr, ptr %9, align 8, !tbaa !39
  %17 = load ptr, ptr @endentity1, align 8, !tbaa !11
  %18 = tail call i32 @OPENSSL_sk_push(ptr noundef %16, ptr noundef %17) #5
  %19 = icmp ne i32 %18, 0
  %20 = zext i1 %19 to i32
  %21 = tail call i32 @test_true(ptr noundef nonnull @.str.14, i32 noundef 380, ptr noundef nonnull @.str.90, i32 noundef %20) #5
  %.not25 = icmp eq i32 %21, 0
  br i1 %.not25, label %.thread, label %22

22:                                               ; preds = %15
  %23 = load ptr, ptr %9, align 8, !tbaa !39
  %24 = load ptr, ptr @root, align 8, !tbaa !11
  %25 = tail call i32 @OPENSSL_sk_push(ptr noundef %23, ptr noundef %24) #5
  %26 = icmp ne i32 %25, 0
  %27 = zext i1 %26 to i32
  %28 = tail call i32 @test_true(ptr noundef nonnull @.str.14, i32 noundef 381, ptr noundef nonnull @.str.91, i32 noundef %27) #5
  %.not26 = icmp eq i32 %28, 0
  br i1 %.not26, label %.thread, label %29

29:                                               ; preds = %22
  %30 = load ptr, ptr %9, align 8, !tbaa !39
  %31 = load ptr, ptr @intermediate, align 8, !tbaa !11
  %32 = tail call i32 @OPENSSL_sk_push(ptr noundef %30, ptr noundef %31) #5
  %33 = icmp ne i32 %32, 0
  %34 = zext i1 %33 to i32
  %35 = tail call i32 @test_true(ptr noundef nonnull @.str.14, i32 noundef 382, ptr noundef nonnull @.str.92, i32 noundef %34) #5
  %.not27 = icmp eq i32 %35, 0
  br i1 %.not27, label %.thread, label %36

36:                                               ; preds = %29
  %37 = load ptr, ptr %13, align 8, !tbaa !40
  %38 = load ptr, ptr @endentity2, align 8, !tbaa !11
  %39 = tail call i32 @OPENSSL_sk_push(ptr noundef %37, ptr noundef %38) #5
  %40 = icmp ne i32 %39, 0
  %41 = zext i1 %40 to i32
  %42 = tail call i32 @test_true(ptr noundef nonnull @.str.14, i32 noundef 383, ptr noundef nonnull @.str.93, i32 noundef %41) #5
  %.not28 = icmp eq i32 %42, 0
  br i1 %.not28, label %.thread, label %43

43:                                               ; preds = %36
  %44 = load ptr, ptr %13, align 8, !tbaa !40
  %45 = load ptr, ptr @intermediate, align 8, !tbaa !11
  %46 = tail call i32 @OPENSSL_sk_push(ptr noundef %44, ptr noundef %45) #5
  %47 = icmp ne i32 %46, 0
  %48 = zext i1 %47 to i32
  %49 = tail call i32 @test_true(ptr noundef nonnull @.str.14, i32 noundef 384, ptr noundef nonnull @.str.94, i32 noundef %48) #5
  %.not29 = icmp eq i32 %49, 0
  br i1 %.not29, label %.thread, label %61

.thread:                                          ; preds = %3, %11, %15, %22, %29, %36, %43
  %50 = getelementptr inbounds nuw i8, ptr %1, i64 8
  %51 = load ptr, ptr %50, align 8, !tbaa !36
  tail call void @OSSL_CMP_CTX_free(ptr noundef %51) #5
  %52 = getelementptr inbounds nuw i8, ptr %1, i64 16
  %53 = load ptr, ptr %52, align 8, !tbaa !19
  tail call void @OSSL_CMP_MSG_free(ptr noundef %53) #5
  %54 = getelementptr inbounds nuw i8, ptr %1, i64 24
  %55 = load ptr, ptr %54, align 8, !tbaa !37
  tail call void @OSSL_CMP_PKISI_free(ptr noundef %55) #5
  %56 = getelementptr inbounds nuw i8, ptr %1, i64 40
  %57 = load ptr, ptr %56, align 8, !tbaa !38
  tail call void @CRYPTO_free(ptr noundef %57, ptr noundef nonnull @.str.14, i32 noundef 46) #5
  %58 = load ptr, ptr %9, align 8, !tbaa !39
  tail call void @OPENSSL_sk_free(ptr noundef %58) #5
  %59 = getelementptr inbounds nuw i8, ptr %1, i64 72
  %60 = load ptr, ptr %59, align 8, !tbaa !40
  tail call void @OPENSSL_sk_free(ptr noundef %60) #5
  tail call void @CRYPTO_free(ptr noundef nonnull %1, ptr noundef nonnull @.str.14, i32 noundef 50) #5
  br label %72

61:                                               ; preds = %43
  %62 = tail call fastcc i32 @execute_cmp_build_cert_chain_test(ptr noundef %1)
  store i32 1, ptr %5, align 8, !tbaa !44
  %.not31 = icmp eq i32 %62, 0
  br i1 %.not31, label %72, label %63

63:                                               ; preds = %61
  %64 = load ptr, ptr %13, align 8, !tbaa !40
  %65 = load ptr, ptr @root, align 8, !tbaa !11
  %66 = tail call i32 @OPENSSL_sk_push(ptr noundef %64, ptr noundef %65) #5
  %67 = icmp ne i32 %66, 0
  %68 = zext i1 %67 to i32
  %69 = tail call i32 @test_true(ptr noundef nonnull @.str.14, i32 noundef 391, ptr noundef nonnull @.str.95, i32 noundef %68) #5
  %.not32 = icmp eq i32 %69, 0
  br i1 %.not32, label %72, label %70

70:                                               ; preds = %63
  %71 = tail call fastcc i32 @execute_cmp_build_cert_chain_test(ptr noundef %1)
  br label %72

72:                                               ; preds = %.thread, %61, %63, %70
  %.02035 = phi ptr [ %1, %70 ], [ %1, %63 ], [ %1, %61 ], [ null, %.thread ]
  %.0 = phi i32 [ %71, %70 ], [ %62, %63 ], [ 0, %61 ], [ 0, %.thread ]
  tail call fastcc void @tear_down(ptr noundef %.02035)
  br label %73

73:                                               ; preds = %0, %72
  %.021 = phi i32 [ %.0, %72 ], [ 0, %0 ]
  ret i32 %.021
}